; Function Attrs: mustprogress nofree norecurse nosync nounwind willreturn memory(write, argmem: readwrite, inaccessiblemem: none) uwtable
define internal void @set_pixel3(ptr noundef readonly captures(none) %0, i32 noundef %1, i32 noundef %2, i32 noundef %3, i32 noundef %4, i32 noundef %5, i32 %6) #4 {
  %8 = trunc i32 %3 to i8
  %9 = load ptr, ptr %0, align 8, !tbaa !65
  %10 = getelementptr inbounds nuw i8, ptr %0, i64 64
  %11 = load i32, ptr %10, align 8, !tbaa !31
  %12 = mul nsw i32 %11, %2
  %13 = add nsw i32 %12, %1
  %14 = sext i32 %13 to i64
  %15 = getelementptr inbounds i8, ptr %9, i64 %14
  store i8 %8, ptr %15, align 1, !tbaa !66
  %16 = trunc i32 %4 to i8
  %17 = getelementptr inbounds nuw i8, ptr %0, i64 8
  %18 = load ptr, ptr %17, align 8, !tbaa !65
  %19 = getelementptr inbounds nuw i8, ptr %0, i64 68
  %20 = load i32, ptr %19, align 4, !tbaa !31
  %21 = mul nsw i32 %20, %2
  %22 = add nsw i32 %21, %1
  %23 = sext i32 %22 to i64
  %24 = getelementptr inbounds i8, ptr %18, i64 %23
  store i8 %16, ptr %24, align 1, !tbaa !66
  %25 = trunc i32 %5 to i8
  %26 = getelementptr inbounds nuw i8, ptr %0, i64 16
  %27 = load ptr, ptr %26, align 8, !tbaa !65
  %28 = getelementptr inbounds nuw i8, ptr %0, i64 72
  %29 = load i32, ptr %28, align 8, !tbaa !31
  %30 = mul nsw i32 %29, %2
  %31 = add nsw i32 %30, %1
  %32 = sext i32 %31 to i64
  %33 = getelementptr inbounds i8, ptr %27, i64 %32
  store i8 %25, ptr %33, align 1, !tbaa !66
  ret void
}